; ModuleID = 'source-C-CXX/37/692.c'
source_filename = "source-C-CXX/37/692.c"
target datalayout = "e-m:e-p270:32:32-p271:32:32-p272:64:64-i64:64-f80:128-n8:16:32:64-S128"
target triple = "x86_64-pc-linux-gnu"

@.str = private unnamed_addr constant [3 x i8] c"%d\00", align 1
@.str.1 = private unnamed_addr constant [4 x i8] c"%lf\00", align 1
@.str.2 = private unnamed_addr constant [6 x i8] c"%.5f\0A\00", align 1

; Function Attrs: nofree nounwind sspstrong uwtable
define dso_local i32 @main() local_unnamed_addr #0 {
  %1 = alloca i32, align 4
  %2 = alloca i32, align 4
  %3 = alloca [1001 x double], align 16
  %4 = bitcast i32* %1 to i8*
  call void @llvm.lifetime.start.p0i8(i64 4, i8* nonnull %4) #5
  %5 = call i32 (i8*, ...) @__isoc99_scanf(i8* getelementptr inbounds ([3 x i8], [3 x i8]* @.str, i64 0, i64 0), i32* nonnull %1)
  %6 = bitcast i32* %2 to i8*
  %7 = bitcast [1001 x double]* %3 to i8*
  %8 = load i32, i32* %1, align 4, !tbaa !5
  %9 = icmp sgt i32 %8, 0
  br i1 %9, label %10, label %95

10:                                               ; preds = %0, %86
  %11 = phi i32 [ %92, %86 ], [ 0, %0 ]
  call void @llvm.lifetime.start.p0i8(i64 4, i8* nonnull %6) #5
  call void @llvm.lifetime.start.p0i8(i64 8008, i8* nonnull %7) #5
  call void @llvm.memset.p0i8.i64(i8* noundef nonnull align 16 dereferenceable(8008) %7, i8 0, i64 8008, i1 false)
  %12 = call i32 (i8*, ...) @__isoc99_scanf(i8* getelementptr inbounds ([3 x i8], [3 x i8]* @.str, i64 0, i64 0), i32* nonnull %2)
  %13 = load i32, i32* %2, align 4, !tbaa !5
  %14 = icmp sgt i32 %13, 0
  br i1 %14, label %17, label %15

15:                                               ; preds = %10
  %16 = sitofp i32 %13 to double
  br label %86

17:                                               ; preds = %10, %17
  %18 = phi i64 [ %24, %17 ], [ 0, %10 ]
  %19 = phi double [ %23, %17 ], [ 0.000000e+00, %10 ]
  %20 = getelementptr inbounds [1001 x double], [1001 x double]* %3, i64 0, i64 %18
  %21 = call i32 (i8*, ...) @__isoc99_scanf(i8* getelementptr inbounds ([4 x i8], [4 x i8]* @.str.1, i64 0, i64 0), double* nonnull %20)
  %22 = load double, double* %20, align 8, !tbaa !9
  %23 = fadd double %19, %22
  %24 = add nuw nsw i64 %18, 1
  %25 = load i32, i32* %2, align 4, !tbaa !5
  %26 = sext i32 %25 to i64
  %27 = icmp slt i64 %24, %26
  br i1 %27, label %17, label %28, !llvm.loop !11

28:                                               ; preds = %17
  %29 = sitofp i32 %25 to double
  %30 = fdiv double %23, %29
  %31 = icmp sgt i32 %25, 0
  br i1 %31, label %32, label %86

32:                                               ; preds = %28
  %33 = zext i32 %25 to i64
  %34 = add nsw i64 %33, -1
  %35 = and i64 %33, 3
  %36 = icmp ult i64 %34, 3
  br i1 %36, label %69, label %37

37:                                               ; preds = %32
  %38 = and i64 %33, 4294967292
  br label %39

39:                                               ; preds = %39, %37
  %40 = phi i64 [ 0, %37 ], [ %66, %39 ]
  %41 = phi double [ 0.000000e+00, %37 ], [ %65, %39 ]
  %42 = phi i64 [ %38, %37 ], [ %67, %39 ]
  %43 = getelementptr inbounds [1001 x double], [1001 x double]* %3, i64 0, i64 %40
  %44 = load double, double* %43, align 16, !tbaa !9
  %45 = fsub double %44, %30
  %46 = fmul double %45, %45
  %47 = fadd double %41, %46
  %48 = or i64 %40, 1
  %49 = getelementptr inbounds [1001 x double], [1001 x double]* %3, i64 0, i64 %48
  %50 = load double, double* %49, align 8, !tbaa !9
  %51 = fsub double %50, %30
  %52 = fmul double %51, %51
  %53 = fadd double %47, %52
  %54 = or i64 %40, 2
  %55 = getelementptr inbounds [1001 x double], [1001 x double]* %3, i64 0, i64 %54
  %56 = load double, double* %55, align 16, !tbaa !9
  %57 = fsub double %56, %30
  %58 = fmul double %57, %57
  %59 = fadd double %53, %58
  %60 = or i64 %40, 3
  %61 = getelementptr inbounds [1001 x double], [1001 x double]* %3, i64 0, i64 %60
  %62 = load double, double* %61, align 8, !tbaa !9
  %63 = fsub double %62, %30
  %64 = fmul double %63, %63
  %65 = fadd double %59, %64
  %66 = add nuw nsw i64 %40, 4
  %67 = add i64 %42, -4
  %68 = icmp eq i64 %67, 0
  br i1 %68, label %69, label %39, !llvm.loop !13

69:                                               ; preds = %39, %32
  %70 = phi double [ undef, %32 ], [ %65, %39 ]
  %71 = phi i64 [ 0, %32 ], [ %66, %39 ]
  %72 = phi double [ 0.000000e+00, %32 ], [ %65, %39 ]
  %73 = icmp eq i64 %35, 0
  br i1 %73, label %86, label %74

74:                                               ; preds = %69, %74
  %75 = phi i64 [ %83, %74 ], [ %71, %69 ]
  %76 = phi double [ %82, %74 ], [ %72, %69 ]
  %77 = phi i64 [ %84, %74 ], [ %35, %69 ]
  %78 = getelementptr inbounds [1001 x double], [1001 x double]* %3, i64 0, i64 %75
  %79 = load double, double* %78, align 8, !tbaa !9
  %80 = fsub double %79, %30
  %81 = fmul double %80, %80
  %82 = fadd double %76, %81
  %83 = add nuw nsw i64 %75, 1
  %84 = add i64 %77, -1
  %85 = icmp eq i64 %84, 0
  br i1 %85, label %86, label %74, !llvm.loop !14

86:                                               ; preds = %69, %74, %15, %28
  %87 = phi double [ %29, %28 ], [ %16, %15 ], [ %29, %74 ], [ %29, %69 ]
  %88 = phi double [ 0.000000e+00, %28 ], [ 0.000000e+00, %15 ], [ %70, %69 ], [ %82, %74 ]
  %89 = fdiv double %88, %87
  %90 = call double @sqrt(double %89) #5
  %91 = call i32 (i8*, ...) @printf(i8* nonnull dereferenceable(1) getelementptr inbounds ([6 x i8], [6 x i8]* @.str.2, i64 0, i64 0), double %90)
  call void @llvm.lifetime.end.p0i8(i64 8008, i8* nonnull %7) #5
  call void @llvm.lifetime.end.p0i8(i64 4, i8* nonnull %6) #5
  %92 = add nuw nsw i32 %11, 1
  %93 = load i32, i32* %1, align 4, !tbaa !5
  %94 = icmp slt i32 %92, %93
  br i1 %94, label %10, label %95, !llvm.loop !16

95:                                               ; preds = %86, %0
  call void @llvm.lifetime.end.p0i8(i64 4, i8* nonnull %4) #5
  ret i32 0
}

; Function Attrs: argmemonly mustprogress nofree nosync nounwind willreturn
declare void @llvm.lifetime.start.p0i8(i64 immarg, i8* nocapture) #1

; Function Attrs: nofree nounwind
declare noundef i32 @__isoc99_scanf(i8* nocapture noundef readonly, ...) local_unnamed_addr #2

; Function Attrs: argmemonly mustprogress nofree nounwind willreturn writeonly
declare void @llvm.memset.p0i8.i64(i8* nocapture writeonly, i8, i64, i1 immarg) #3

; Function Attrs: mustprogress nofree nounwind willreturn
declare double @sqrt(double) local_unnamed_addr #4

; Function Attrs: nofree nounwind
declare noundef i32 @printf(i8* nocapture noundef readonly, ...) local_unnamed_addr #2

; Function Attrs: argmemonly mustprogress nofree nosync nounwind willreturn
declare void @llvm.lifetime.end.p0i8(i64 immarg, i8* nocapture) #1


!llvm.module.flags = !{!0, !1, !2, !3}
!llvm.ident = !{!4}

!0 = !{i32 1, !"wchar_size", i32 4}
!1 = !{i32 7, !"PIC Level", i32 2}
!2 = !{i32 7, !"PIE Level", i32 2}
!3 = !{i32 7, !"uwtable", i32 1}
!4 = !{!"clang version 13.0.0"}
!5 = !{!6, !6, i64 0}
!6 = !{!"int", !7, i64 0}
!7 = !{!"omnipotent char", !8, i64 0}
!8 = !{!"Simple C/C++ TBAA"}
!9 = !{!10, !10, i64 0}
!10 = !{!"double", !7, i64 0}
!11 = distinct !{!11, !12}
!12 = !{!"llvm.loop.mustprogress"}
!13 = distinct !{!13, !12}
!14 = distinct !{!14, !15}
!15 = !{!"llvm.loop.unroll.disable"}
!16 = distinct !{!16, !12}
